target datalayout = "e-m:e-p270:32:32-p271:32:32-p272:64:64-i64:64-i128:128-f80:128-n8:16:32:64-S128"
target triple = "x86_64-pc-linux-gnu"

%"class.std::vector.8" = type { %"struct.std::_Vector_base.9" }
%"struct.std::_Vector_base.9" = type { %"struct.std::_Vector_base<int, std::allocator<int>>::_Vector_impl" }
%"struct.std::_Vector_base<int, std::allocator<int>>::_Vector_impl" = type { %"struct.std::_Vector_base<int, std::allocator<int>>::_Vector_impl_data" }
%"struct.std::_Vector_base<int, std::allocator<int>>::_Vector_impl_data" = type { ptr, ptr, ptr }
%"class.Yosys::hashlib::pool" = type <{ %"class.std::vector.8", %"class.std::vector.13", [8 x i8] }>
%"class.std::vector.13" = type { %"struct.std::_Vector_base.14" }
%"struct.std::_Vector_base.14" = type { %"struct.std::_Vector_base<Yosys::hashlib::pool<Yosys::RTLIL::IdString>::entry_t, std::allocator<Yosys::hashlib::pool<Yosys::RTLIL::IdString>::entry_t>>::_Vector_impl" }
%"struct.std::_Vector_base<Yosys::hashlib::pool<Yosys::RTLIL::IdString>::entry_t, std::allocator<Yosys::hashlib::pool<Yosys::RTLIL::IdString>::entry_t>>::_Vector_impl" = type { %"struct.std::_Vector_base<Yosys::hashlib::pool<Yosys::RTLIL::IdString>::entry_t, std::allocator<Yosys::hashlib::pool<Yosys::RTLIL::IdString>::entry_t>>::_Vector_impl_data" }
%"struct.std::_Vector_base<Yosys::hashlib::pool<Yosys::RTLIL::IdString>::entry_t, std::allocator<Yosys::hashlib::pool<Yosys::RTLIL::IdString>::entry_t>>::_Vector_impl_data" = type { ptr, ptr, ptr }
%"struct.(anonymous namespace)::GraphNode" = type { i32, i8, i8, i8, i8, ptr, %"class.Yosys::hashlib::pool", %"class.Yosys::hashlib::dict.201", %"class.Yosys::hashlib::pool.208", %"class.Yosys::hashlib::pool.208" }
%"class.Yosys::hashlib::dict.201" = type <{ %"class.std::vector.8", %"class.std::vector.202", [8 x i8] }>
%"class.std::vector.202" = type { %"struct.std::_Vector_base.203" }
%"struct.std::_Vector_base.203" = type { %"struct.std::_Vector_base<Yosys::hashlib::dict<int, unsigned char>::entry_t, std::allocator<Yosys::hashlib::dict<int, unsigned char>::entry_t>>::_Vector_impl" }
%"struct.std::_Vector_base<Yosys::hashlib::dict<int, unsigned char>::entry_t, std::allocator<Yosys::hashlib::dict<int, unsigned char>::entry_t>>::_Vector_impl" = type { %"struct.std::_Vector_base<Yosys::hashlib::dict<int, unsigned char>::entry_t, std::allocator<Yosys::hashlib::dict<int, unsigned char>::entry_t>>::_Vector_impl_data" }
%"struct.std::_Vector_base<Yosys::hashlib::dict<int, unsigned char>::entry_t, std::allocator<Yosys::hashlib::dict<int, unsigned char>::entry_t>>::_Vector_impl_data" = type { ptr, ptr, ptr }
%"class.Yosys::hashlib::pool.208" = type <{ %"class.std::vector.8", %"class.std::vector.209", [8 x i8] }>
%"class.std::vector.209" = type { %"struct.std::_Vector_base.210" }
%"struct.std::_Vector_base.210" = type { %"struct.std::_Vector_base<Yosys::hashlib::pool<(anonymous namespace)::GraphNode *>::entry_t, std::allocator<Yosys::hashlib::pool<(anonymous namespace)::GraphNode *>::entry_t>>::_Vector_impl" }
%"struct.std::_Vector_base<Yosys::hashlib::pool<(anonymous namespace)::GraphNode *>::entry_t, std::allocator<Yosys::hashlib::pool<(anonymous namespace)::GraphNode *>::entry_t>>::_Vector_impl" = type { %"struct.std::_Vector_base<Yosys::hashlib::pool<(anonymous namespace)::GraphNode *>::entry_t, std::allocator<Yosys::hashlib::pool<(anonymous namespace)::GraphNode *>::entry_t>>::_Vector_impl_data" }
%"struct.std::_Vector_base<Yosys::hashlib::pool<(anonymous namespace)::GraphNode *>::entry_t, std::allocator<Yosys::hashlib::pool<(anonymous namespace)::GraphNode *>::entry_t>>::_Vector_impl_data" = type { ptr, ptr, ptr }

; Function Attrs: mustprogress uwtable
define internal noundef ptr @_ZN12_GLOBAL__N_19GraphNode3getEv(ptr noundef nonnull align 8 dereferenceable(240) %0) #4 align 2 {
  %2 = alloca ptr, align 8
  %3 = alloca ptr, align 8
  store ptr %0, ptr %3, align 8, !tbaa !303
  %4 = load ptr, ptr %3, align 8
  %5 = getelementptr inbounds nuw %"struct.(anonymous namespace)::GraphNode", ptr %4, i32 0, i32 5
  %6 = load ptr, ptr %5, align 8, !tbaa !588
  %7 = icmp eq ptr %6, null
  br i1 %7, label %8, label %9

8:                                                ; preds = %1
  store ptr %4, ptr %2, align 8
  br label %14

9:                                                ; preds = %1
  %10 = getelementptr inbounds nuw %"struct.(anonymous namespace)::GraphNode", ptr %4, i32 0, i32 5
  %11 = load ptr, ptr %10, align 8, !tbaa !588
  %12 = call noundef ptr @_ZN12_GLOBAL__N_19GraphNode3getEv(ptr noundef nonnull align 8 dereferenceable(240) %11)
  %13 = getelementptr inbounds nuw %"struct.(anonymous namespace)::GraphNode", ptr %4, i32 0, i32 5
  store ptr %12, ptr %13, align 8, !tbaa !588
  store ptr %12, ptr %2, align 8
  br label %14

14:                                               ; preds = %9, %8
  %15 = load ptr, ptr %2, align 8
  ret ptr %15
}