; Function Attrs: mustprogress nofree nosync nounwind memory(readwrite, inaccessiblemem: none) uwtable
define internal fastcc noundef nonnull ptr @_ZN12_GLOBAL__N_19GraphNode3getEv(ptr noundef nonnull align 8 captures(ret: address, provenance) dereferenceable(240) %0) unnamed_addr #22 align 2 {
  %2 = getelementptr inbounds nuw i8, ptr %0, i64 8
  %3 = load ptr, ptr %2, align 8, !tbaa !517
  %4 = icmp eq ptr %3, null
  br i1 %4, label %common.ret3, label %5

common.ret3:                                      ; preds = %1, %5
  %common.ret3.op = phi ptr [ %6, %5 ], [ %0, %1 ]
  ret ptr %common.ret3.op

5:                                                ; preds = %1
  %6 = tail call fastcc noundef ptr @_ZN12_GLOBAL__N_19GraphNode3getEv(ptr noundef nonnull align 8 dereferenceable(240) %3)
  store ptr %6, ptr %2, align 8, !tbaa !517
  br label %common.ret3
}